target datalayout = "e-m:e-p270:32:32-p271:32:32-p272:64:64-i64:64-i128:128-f80:128-n8:16:32:64-S128"
target triple = "x86_64-pc-linux-gnu"

%"class.icu_77::Locale" = type <{ %"class.icu_77::UObject", [12 x i8], [6 x i8], [4 x i8], [2 x i8], i32, [4 x i8], ptr, [157 x i8], [3 x i8], ptr, i8, [7 x i8] }>
%"class.icu_77::UObject" = type { ptr }

; Function Attrs: mustprogress uwtable
define ptr @udatpg_open_77(ptr noundef %0, ptr noundef %1) #0 personality ptr @__gxx_personality_v0 {
  %3 = alloca ptr, align 8
  %4 = alloca ptr, align 8
  %5 = alloca ptr, align 8
  %6 = alloca %"class.icu_77::Locale", align 8
  %7 = alloca ptr, align 8
  %8 = alloca i32, align 4
  store ptr %0, ptr %4, align 8, !tbaa !3
  store ptr %1, ptr %5, align 8, !tbaa !8
  %9 = load ptr, ptr %4, align 8, !tbaa !3
  %10 = icmp eq ptr %9, null
  br i1 %10, label %11, label %14

11:                                               ; preds = %2
  %12 = load ptr, ptr %5, align 8, !tbaa !8
  %13 = call noundef ptr @_ZN6icu_7724DateTimePatternGenerator14createInstanceER10UErrorCode(ptr noundef nonnull align 4 dereferenceable(4) %12)
  store ptr %13, ptr %3, align 8
  br label %23

14:                                               ; preds = %2
  call void @llvm.lifetime.start.p0(i64 224, ptr %6) #7
  %15 = load ptr, ptr %4, align 8, !tbaa !3
  call void @_ZN6icu_776LocaleC1EPKcS2_S2_S2_(ptr noundef nonnull align 8 dereferenceable(217) %6, ptr noundef %15, ptr noundef null, ptr noundef null, ptr noundef null)
  %16 = load ptr, ptr %5, align 8, !tbaa !8
  %17 = invoke noundef ptr @_ZN6icu_7724DateTimePatternGenerator14createInstanceERKNS_6LocaleER10UErrorCode(ptr noundef nonnull align 8 dereferenceable(217) %6, ptr noundef nonnull align 4 dereferenceable(4) %16)
          to label %18 unwind label %19

18:                                               ; preds = %14
  store ptr %17, ptr %3, align 8
  call void @_ZN6icu_776LocaleD1Ev(ptr noundef nonnull align 8 dereferenceable(217) %6) #7
  call void @llvm.lifetime.end.p0(i64 224, ptr %6) #7
  br label %23

19:                                               ; preds = %14
  %20 = landingpad { ptr, i32 }
          cleanup
  %21 = extractvalue { ptr, i32 } %20, 0
  store ptr %21, ptr %7, align 8
  %22 = extractvalue { ptr, i32 } %20, 1
  store i32 %22, ptr %8, align 4
  call void @_ZN6icu_776LocaleD1Ev(ptr noundef nonnull align 8 dereferenceable(217) %6) #7
  call void @llvm.lifetime.end.p0(i64 224, ptr %6) #7
  br label %25

23:                                               ; preds = %18, %11
  %24 = load ptr, ptr %3, align 8
  ret ptr %24

25:                                               ; preds = %19
  %26 = load ptr, ptr %7, align 8
  %27 = load i32, ptr %8, align 4
  %28 = insertvalue { ptr, i32 } poison, ptr %26, 0
  %29 = insertvalue { ptr, i32 } %28, i32 %27, 1
  resume { ptr, i32 } %29
}