; Function Attrs: mustprogress uwtable
define noundef ptr @udatpg_open_77(ptr noundef %0, ptr noundef %1) local_unnamed_addr #0 personality ptr @__gxx_personality_v0 {
  %3 = alloca %"class.icu_77::Locale", align 8
  %4 = icmp eq ptr %0, null
  br i1 %4, label %5, label %7

5:                                                ; preds = %2
  %6 = tail call noundef ptr @_ZN6icu_7724DateTimePatternGenerator14createInstanceER10UErrorCode(ptr noundef nonnull align 4 dereferenceable(4) %1)
  br label %12

7:                                                ; preds = %2
  call void @llvm.lifetime.start.p0(i64 224, ptr nonnull %3) #5
  call void @_ZN6icu_776LocaleC1EPKcS2_S2_S2_(ptr noundef nonnull align 8 dereferenceable(217) %3, ptr noundef nonnull %0, ptr noundef null, ptr noundef null, ptr noundef null)
  %8 = invoke noundef ptr @_ZN6icu_7724DateTimePatternGenerator14createInstanceERKNS_6LocaleER10UErrorCode(ptr noundef nonnull align 8 dereferenceable(217) %3, ptr noundef nonnull align 4 dereferenceable(4) %1)
          to label %9 unwind label %10

9:                                                ; preds = %7
  call void @_ZN6icu_776LocaleD1Ev(ptr noundef nonnull align 8 dereferenceable(217) %3) #5
  call void @llvm.lifetime.end.p0(i64 224, ptr nonnull %3) #5
  br label %12

10:                                               ; preds = %7
  %11 = landingpad { ptr, i32 }
          cleanup
  call void @_ZN6icu_776LocaleD1Ev(ptr noundef nonnull align 8 dereferenceable(217) %3) #5
  call void @llvm.lifetime.end.p0(i64 224, ptr nonnull %3) #5
  resume { ptr, i32 } %11

12:                                               ; preds = %9, %5
  %.0 = phi ptr [ %6, %5 ], [ %8, %9 ]
  ret ptr %.0
}